target datalayout = "e-m:e-p270:32:32-p271:32:32-p272:64:64-i64:64-i128:128-f80:128-n8:16:32:64-S128"
target triple = "x86_64-pc-linux-gnu"

@.str = private unnamed_addr constant [33 x i8] c"../openssl/crypto/cmp/cmp_util.c\00", align 1
@__func__.ossl_cmp_asn1_octet_string_set1_bytes = private unnamed_addr constant [38 x i8] c"ossl_cmp_asn1_octet_string_set1_bytes\00", align 1

; Function Attrs: nounwind uwtable
define i32 @ossl_cmp_asn1_octet_string_set1_bytes(ptr noundef %0, ptr noundef %1, i32 noundef %2) #0 {
  %4 = alloca i32, align 4
  %5 = alloca ptr, align 8
  %6 = alloca ptr, align 8
  %7 = alloca i32, align 4
  %8 = alloca ptr, align 8
  %9 = alloca i32, align 4
  store ptr %0, ptr %5, align 8, !tbaa !35
  store ptr %1, ptr %6, align 8, !tbaa !3
  store i32 %2, ptr %7, align 4, !tbaa !12
  call void @llvm.lifetime.start.p0(i64 8, ptr %8) #7
  store ptr null, ptr %8, align 8, !tbaa !33
  %10 = load ptr, ptr %5, align 8, !tbaa !35
  %11 = icmp eq ptr %10, null
  br i1 %11, label %12, label %13

12:                                               ; preds = %3
  call void @ERR_new()
  call void @ERR_set_debug(ptr noundef @.str, i32 noundef 272, ptr noundef @__func__.ossl_cmp_asn1_octet_string_set1_bytes)
  call void (i32, i32, ptr, ...) @ERR_set_error(i32 noundef 58, i32 noundef 103, ptr noundef null)
  store i32 0, ptr %4, align 4
  store i32 1, ptr %9, align 4
  br label %33

13:                                               ; preds = %3
  %14 = load ptr, ptr %6, align 8, !tbaa !3
  %15 = icmp ne ptr %14, null
  br i1 %15, label %16, label %28

16:                                               ; preds = %13
  %17 = call ptr @ASN1_OCTET_STRING_new()
  store ptr %17, ptr %8, align 8, !tbaa !33
  %18 = icmp eq ptr %17, null
  br i1 %18, label %25, label %19

19:                                               ; preds = %16
  %20 = load ptr, ptr %8, align 8, !tbaa !33
  %21 = load ptr, ptr %6, align 8, !tbaa !3
  %22 = load i32, ptr %7, align 4, !tbaa !12
  %23 = call i32 @ASN1_OCTET_STRING_set(ptr noundef %20, ptr noundef %21, i32 noundef %22)
  %24 = icmp ne i32 %23, 0
  br i1 %24, label %27, label %25

25:                                               ; preds = %19, %16
  %26 = load ptr, ptr %8, align 8, !tbaa !33
  call void @ASN1_OCTET_STRING_free(ptr noundef %26)
  store i32 0, ptr %4, align 4
  store i32 1, ptr %9, align 4
  br label %33

27:                                               ; preds = %19
  br label %28

28:                                               ; preds = %27, %13
  %29 = load ptr, ptr %5, align 8, !tbaa !35
  %30 = load ptr, ptr %29, align 8, !tbaa !33
  call void @ASN1_OCTET_STRING_free(ptr noundef %30)
  %31 = load ptr, ptr %8, align 8, !tbaa !33
  %32 = load ptr, ptr %5, align 8, !tbaa !35
  store ptr %31, ptr %32, align 8, !tbaa !33
  store i32 1, ptr %4, align 4
  store i32 1, ptr %9, align 4
  br label %33

33:                                               ; preds = %28, %25, %12
  call void @llvm.lifetime.end.p0(i64 8, ptr %8) #7
  %34 = load i32, ptr %4, align 4
  ret i32 %34
}