; Function Attrs: nounwind uwtable
define range(i32 0, 2) i32 @ossl_cmp_asn1_octet_string_set1_bytes(ptr noundef captures(address_is_null) %0, ptr noundef %1, i32 noundef %2) local_unnamed_addr #1 {
  %4 = icmp eq ptr %0, null
  br i1 %4, label %5, label %6

5:                                                ; preds = %3
  tail call void @ERR_new() #7
  tail call void @ERR_set_debug(ptr noundef nonnull @.str, i32 noundef 272, ptr noundef nonnull @__func__.ossl_cmp_asn1_octet_string_set1_bytes) #7
  tail call void (i32, i32, ptr, ...) @ERR_set_error(i32 noundef 58, i32 noundef 103, ptr noundef null) #7
  br label %15

6:                                                ; preds = %3
  %.not = icmp eq ptr %1, null
  br i1 %.not, label %13, label %7

7:                                                ; preds = %6
  %8 = tail call ptr @ASN1_OCTET_STRING_new() #7
  %9 = icmp eq ptr %8, null
  br i1 %9, label %12, label %10

10:                                               ; preds = %7
  %11 = tail call i32 @ASN1_OCTET_STRING_set(ptr noundef nonnull %8, ptr noundef nonnull %1, i32 noundef %2) #7
  %.not13 = icmp eq i32 %11, 0
  br i1 %.not13, label %12, label %13

12:                                               ; preds = %10, %7
  tail call void @ASN1_OCTET_STRING_free(ptr noundef %8) #7
  br label %15

13:                                               ; preds = %10, %6
  %.0 = phi ptr [ %8, %10 ], [ null, %6 ]
  %14 = load ptr, ptr %0, align 8, !tbaa !16
  tail call void @ASN1_OCTET_STRING_free(ptr noundef %14) #7
  store ptr %.0, ptr %0, align 8, !tbaa !16
  br label %15

15:                                               ; preds = %13, %12, %5
  %.09 = phi i32 [ 0, %5 ], [ 0, %12 ], [ 1, %13 ]
  ret i32 %.09
}